; Function Attrs: nounwind uwtable
define ptr @l_Lake_BuildTrace_withCaption(ptr noundef %0, ptr noundef %1) local_unnamed_addr #0 {
  %.val = load i32, ptr %1, align 4, !tbaa !4
  %3 = icmp eq i32 %.val, 1
  br i1 %3, label %4, label %16

4:                                                ; preds = %2
  %5 = getelementptr inbounds nuw i8, ptr %1, i64 8
  %6 = load ptr, ptr %5, align 8, !tbaa !9
  %7 = ptrtoint ptr %6 to i64
  %8 = and i64 %7, 1
  %.not38 = icmp eq i64 %8, 0
  br i1 %.not38, label %9, label %lean_dec.exit25

9:                                                ; preds = %4
  %10 = load i32, ptr %6, align 4, !tbaa !4
  %11 = icmp sgt i32 %10, 1
  br i1 %11, label %12, label %14, !prof !13

12:                                               ; preds = %9
  %13 = add nsw i32 %10, -1
  store i32 %13, ptr %6, align 4, !tbaa !4
  br label %lean_dec.exit25

14:                                               ; preds = %9
  %.not.i = icmp eq i32 %10, 0
  br i1 %.not.i, label %lean_dec.exit25, label %15

15:                                               ; preds = %14
  tail call void @lean_dec_ref_cold(ptr noundef nonnull %6) #4
  br label %lean_dec.exit25

lean_dec.exit25:                                  ; preds = %15, %14, %12, %4
  store ptr %0, ptr %5, align 8, !tbaa !9
  br label %64

16:                                               ; preds = %2
  %17 = getelementptr inbounds nuw i8, ptr %1, i64 16
  %18 = load ptr, ptr %17, align 8, !tbaa !9
  %19 = getelementptr inbounds nuw i8, ptr %1, i64 24
  %20 = load ptr, ptr %19, align 8, !tbaa !9
  %21 = getelementptr inbounds nuw i8, ptr %1, i64 32
  %22 = load ptr, ptr %21, align 8, !tbaa !9
  %23 = ptrtoint ptr %22 to i64
  %24 = and i64 %23, 1
  %.not = icmp eq i64 %24, 0
  br i1 %.not, label %25, label %lean_inc.exit24

25:                                               ; preds = %16
  %.val.i = load i32, ptr %22, align 4, !tbaa !4
  %26 = icmp sgt i32 %.val.i, 0
  br i1 %26, label %27, label %29, !prof !13

27:                                               ; preds = %25
  %28 = add nuw i32 %.val.i, 1
  store i32 %28, ptr %22, align 4, !tbaa !4
  br label %lean_inc.exit24

29:                                               ; preds = %25
  %.not.i28 = icmp eq i32 %.val.i, 0
  br i1 %.not.i28, label %lean_inc.exit24, label %30

30:                                               ; preds = %29
  tail call void @lean_inc_ref_cold(ptr noundef nonnull %22) #4
  br label %lean_inc.exit24

lean_inc.exit24:                                  ; preds = %30, %29, %27, %16
  %31 = ptrtoint ptr %20 to i64
  %32 = and i64 %31, 1
  %.not35 = icmp eq i64 %32, 0
  br i1 %.not35, label %33, label %lean_inc.exit23

33:                                               ; preds = %lean_inc.exit24
  %.val.i29 = load i32, ptr %20, align 4, !tbaa !4
  %34 = icmp sgt i32 %.val.i29, 0
  br i1 %34, label %35, label %37, !prof !13

35:                                               ; preds = %33
  %36 = add nuw i32 %.val.i29, 1
  store i32 %36, ptr %20, align 4, !tbaa !4
  br label %lean_inc.exit23

37:                                               ; preds = %33
  %.not.i30 = icmp eq i32 %.val.i29, 0
  br i1 %.not.i30, label %lean_inc.exit23, label %38

38:                                               ; preds = %37
  tail call void @lean_inc_ref_cold(ptr noundef nonnull %20) #4
  br label %lean_inc.exit23

lean_inc.exit23:                                  ; preds = %38, %37, %35, %lean_inc.exit24
  %39 = ptrtoint ptr %18 to i64
  %40 = and i64 %39, 1
  %.not36 = icmp eq i64 %40, 0
  br i1 %.not36, label %41, label %lean_inc.exit

41:                                               ; preds = %lean_inc.exit23
  %.val.i32 = load i32, ptr %18, align 4, !tbaa !4
  %42 = icmp sgt i32 %.val.i32, 0
  br i1 %42, label %43, label %45, !prof !13

43:                                               ; preds = %41
  %44 = add nuw i32 %.val.i32, 1
  store i32 %44, ptr %18, align 4, !tbaa !4
  br label %lean_inc.exit

45:                                               ; preds = %41
  %.not.i33 = icmp eq i32 %.val.i32, 0
  br i1 %.not.i33, label %lean_inc.exit, label %46

46:                                               ; preds = %45
  tail call void @lean_inc_ref_cold(ptr noundef nonnull %18) #4
  br label %lean_inc.exit

lean_inc.exit:                                    ; preds = %46, %45, %43, %lean_inc.exit23
  %47 = ptrtoint ptr %1 to i64
  %48 = and i64 %47, 1
  %.not37 = icmp eq i64 %48, 0
  br i1 %.not37, label %49, label %lean_dec.exit

49:                                               ; preds = %lean_inc.exit
  %50 = load i32, ptr %1, align 4, !tbaa !4
  %51 = icmp sgt i32 %50, 1
  br i1 %51, label %52, label %54, !prof !13

52:                                               ; preds = %49
  %53 = add nsw i32 %50, -1
  store i32 %53, ptr %1, align 4, !tbaa !4
  br label %lean_dec.exit

54:                                               ; preds = %49
  %.not.i26 = icmp eq i32 %50, 0
  br i1 %.not.i26, label %lean_dec.exit, label %55

55:                                               ; preds = %54
  tail call void @lean_dec_ref_cold(ptr noundef nonnull %1) #4
  br label %lean_dec.exit

lean_dec.exit:                                    ; preds = %55, %54, %52, %lean_inc.exit
  tail call void @lean_inc_heartbeat() #4
  %56 = tail call noalias ptr @mi_malloc_small(i64 noundef 40) #4
  %57 = icmp eq ptr %56, null
  br i1 %57, label %58, label %lean_alloc_ctor.exit

58:                                               ; preds = %lean_dec.exit
  tail call void @lean_internal_panic_out_of_memory() #5
  unreachable

lean_alloc_ctor.exit:                             ; preds = %lean_dec.exit
  %59 = getelementptr inbounds nuw i8, ptr %56, i64 4
  store i32 1, ptr %56, align 4, !tbaa !4
  store i32 262184, ptr %59, align 4
  %60 = getelementptr inbounds nuw i8, ptr %56, i64 8
  store ptr %0, ptr %60, align 8, !tbaa !9
  %61 = getelementptr inbounds nuw i8, ptr %56, i64 16
  store ptr %18, ptr %61, align 8, !tbaa !9
  %62 = getelementptr inbounds nuw i8, ptr %56, i64 24
  store ptr %20, ptr %62, align 8, !tbaa !9
  %63 = getelementptr inbounds nuw i8, ptr %56, i64 32
  store ptr %22, ptr %63, align 8, !tbaa !9
  br label %64

64:                                               ; preds = %lean_alloc_ctor.exit, %lean_dec.exit25
  %.0 = phi ptr [ %1, %lean_dec.exit25 ], [ %56, %lean_alloc_ctor.exit ]
  ret ptr %.0
}